target datalayout = "e-m:e-p270:32:32-p271:32:32-p272:64:64-i64:64-i128:128-f80:128-n8:16:32:64-S128"
target triple = "x86_64-pc-linux-gnu"

%struct._Unwind_Exception = type { i64, ptr, i64, i64 }
%"struct.__cxxabiv1::__cxa_exception" = type { ptr, i64, ptr, ptr, ptr, ptr, ptr, i32, i32, ptr, ptr, ptr, ptr, %struct._Unwind_Exception }
%"struct.__cxxabiv1::__cxa_eh_globals" = type { ptr, i32 }

; Function Attrs: mustprogress nounwind uwtable
define hidden noundef i64 @_ZN10__cxxabiv119__getExceptionClassEPK17_Unwind_Exception(ptr noundef %0) #0 {
  %2 = alloca ptr, align 8
  %3 = alloca i64, align 8
  store ptr %0, ptr %2, align 8, !tbaa !4
  call void @llvm.lifetime.start.p0(i64 8, ptr %3) #14
  %4 = load ptr, ptr %2, align 8, !tbaa !4
  %5 = getelementptr inbounds nuw %struct._Unwind_Exception, ptr %4, i32 0, i32 0
  call void @llvm.memcpy.p0.p0.i64(ptr align 8 %3, ptr align 16 %5, i64 8, i1 false)
  %6 = load i64, ptr %3, align 8, !tbaa !9
  call void @llvm.lifetime.end.p0(i64 8, ptr %3) #14
  ret i64 %6
}

; Function Attrs: mustprogress nounwind uwtable
define hidden noundef zeroext i1 @_ZN10__cxxabiv121__isOurExceptionClassEPK17_Unwind_Exception(ptr noundef %0) #0 {
  %2 = alloca ptr, align 8
  store ptr %0, ptr %2, align 8, !tbaa !4
  %3 = load ptr, ptr %2, align 8, !tbaa !4
  %4 = call noundef i64 @_ZN10__cxxabiv119__getExceptionClassEPK17_Unwind_Exception(ptr noundef %3)
  %5 = and i64 %4, -256
  %6 = icmp eq i64 %5, 4849336966747728640
  ret i1 %6
}

; Function Attrs: mustprogress uwtable
define dso_local ptr @__cxa_current_exception_type() #10 {
  %1 = alloca ptr, align 8
  %2 = alloca ptr, align 8
  %3 = alloca i32, align 4
  %4 = alloca ptr, align 8
  call void @llvm.lifetime.start.p0(i64 8, ptr %2) #14
  %5 = call ptr @__cxa_get_globals_fast()
  store ptr %5, ptr %2, align 8, !tbaa !18
  %6 = load ptr, ptr %2, align 8, !tbaa !18
  %7 = icmp eq ptr null, %6
  br i1 %7, label %8, label %9

8:                                                ; preds = %0
  store ptr null, ptr %1, align 8
  store i32 1, ptr %3, align 4
  br label %26

9:                                                ; preds = %0
  call void @llvm.lifetime.start.p0(i64 8, ptr %4) #14
  %10 = load ptr, ptr %2, align 8, !tbaa !18
  %11 = getelementptr inbounds nuw %"struct.__cxxabiv1::__cxa_eh_globals", ptr %10, i32 0, i32 0
  %12 = load ptr, ptr %11, align 8, !tbaa !27
  store ptr %12, ptr %4, align 8, !tbaa !13
  %13 = load ptr, ptr %4, align 8, !tbaa !13
  %14 = icmp eq ptr null, %13
  br i1 %14, label %15, label %16

15:                                               ; preds = %9
  store ptr null, ptr %1, align 8
  store i32 1, ptr %3, align 4
  br label %25

16:                                               ; preds = %9
  %17 = load ptr, ptr %4, align 8, !tbaa !13
  %18 = getelementptr inbounds nuw %"struct.__cxxabiv1::__cxa_exception", ptr %17, i32 0, i32 13
  %19 = call noundef zeroext i1 @_ZN10__cxxabiv121__isOurExceptionClassEPK17_Unwind_Exception(ptr noundef %18)
  br i1 %19, label %21, label %20

20:                                               ; preds = %16
  store ptr null, ptr %1, align 8
  store i32 1, ptr %3, align 4
  br label %25

21:                                               ; preds = %16
  %22 = load ptr, ptr %4, align 8, !tbaa !13
  %23 = getelementptr inbounds nuw %"struct.__cxxabiv1::__cxa_exception", ptr %22, i32 0, i32 2
  %24 = load ptr, ptr %23, align 16, !tbaa !36
  store ptr %24, ptr %1, align 8
  store i32 1, ptr %3, align 4
  br label %25

25:                                               ; preds = %21, %20, %15
  call void @llvm.lifetime.end.p0(i64 8, ptr %4) #14
  br label %26

26:                                               ; preds = %25, %8
  call void @llvm.lifetime.end.p0(i64 8, ptr %2) #14
  %27 = load ptr, ptr %1, align 8
  ret ptr %27
}