; Function Attrs: mustprogress uwtable
define dso_local ptr @__cxa_current_exception_type() local_unnamed_addr #9 {
  %1 = tail call ptr @__cxa_get_globals_fast()
  %2 = icmp eq ptr %1, null
  br i1 %2, label %13, label %3

3:                                                ; preds = %0
  %4 = load ptr, ptr %1, align 8, !tbaa !15
  %5 = icmp eq ptr %4, null
  br i1 %5, label %13, label %6

6:                                                ; preds = %3
  %7 = getelementptr inbounds nuw i8, ptr %4, i64 96
  %.0.copyload.i.i = load i64, ptr %7, align 16
  %8 = and i64 %.0.copyload.i.i, -256
  %9 = icmp eq i64 %8, 4849336966747728640
  br i1 %9, label %10, label %13

10:                                               ; preds = %6
  %11 = getelementptr inbounds nuw i8, ptr %4, i64 16
  %12 = load ptr, ptr %11, align 16, !tbaa !23
  br label %13

13:                                               ; preds = %10, %3, %6, %0
  %.0 = phi ptr [ null, %0 ], [ %12, %10 ], [ null, %3 ], [ null, %6 ]
  ret ptr %.0
}